; Function Attrs: mustprogress nounwind uwtable
define void @_ZN4LIEF5MachO9FatBinaryD2Ev(ptr nocapture noundef nonnull align 8 dereferenceable(32) %0) unnamed_addr #0 align 2 personality ptr @__gxx_personality_v0 {
  store ptr getelementptr inbounds ({ [4 x ptr] }, ptr @_ZTVN4LIEF5MachO9FatBinaryE, i64 0, i32 0, i64 2), ptr %0, align 8
  %2 = getelementptr inbounds i8, ptr %0, i64 8
  %3 = load ptr, ptr %2, align 8
  %4 = getelementptr inbounds i8, ptr %0, i64 16
  %5 = load ptr, ptr %4, align 8
  %.not4.i.i.i.i = icmp eq ptr %3, %5
  br i1 %.not4.i.i.i.i, label %_ZSt8_DestroyIPSt10unique_ptrIN4LIEF5MachO6BinaryESt14default_deleteIS3_EES6_EvT_S8_RSaIT0_E.exit.i, label %.lr.ph.i.i.i.i

.lr.ph.i.i.i.i:                                   ; preds = %1, %_ZSt8_DestroyISt10unique_ptrIN4LIEF5MachO6BinaryESt14default_deleteIS3_EEEvPT_.exit.i.i.i.i
  %.05.i.i.i.i = phi ptr [ %10, %_ZSt8_DestroyISt10unique_ptrIN4LIEF5MachO6BinaryESt14default_deleteIS3_EEEvPT_.exit.i.i.i.i ], [ %3, %1 ]
  %6 = load ptr, ptr %.05.i.i.i.i, align 8
  %.not.i.i.i.i.i.i = icmp eq ptr %6, null
  br i1 %.not.i.i.i.i.i.i, label %_ZSt8_DestroyISt10unique_ptrIN4LIEF5MachO6BinaryESt14default_deleteIS3_EEEvPT_.exit.i.i.i.i, label %_ZNKSt14default_deleteIN4LIEF5MachO6BinaryEEclEPS2_.exit.i.i.i.i.i.i

_ZNKSt14default_deleteIN4LIEF5MachO6BinaryEEclEPS2_.exit.i.i.i.i.i.i: ; preds = %.lr.ph.i.i.i.i
  %7 = load ptr, ptr %6, align 8
  %8 = getelementptr inbounds i8, ptr %7, i64 24
  %9 = load ptr, ptr %8, align 8
  tail call void %9(ptr noundef nonnull align 8 dereferenceable(384) %6) #12
  br label %_ZSt8_DestroyISt10unique_ptrIN4LIEF5MachO6BinaryESt14default_deleteIS3_EEEvPT_.exit.i.i.i.i

_ZSt8_DestroyISt10unique_ptrIN4LIEF5MachO6BinaryESt14default_deleteIS3_EEEvPT_.exit.i.i.i.i: ; preds = %_ZNKSt14default_deleteIN4LIEF5MachO6BinaryEEclEPS2_.exit.i.i.i.i.i.i, %.lr.ph.i.i.i.i
  store ptr null, ptr %.05.i.i.i.i, align 8
  %10 = getelementptr inbounds i8, ptr %.05.i.i.i.i, i64 8
  %.not.i.i.i.i = icmp eq ptr %10, %5
  br i1 %.not.i.i.i.i, label %_ZSt8_DestroyIPSt10unique_ptrIN4LIEF5MachO6BinaryESt14default_deleteIS3_EES6_EvT_S8_RSaIT0_E.exitthread-pre-split.i, label %.lr.ph.i.i.i.i, !llvm.loop !4

_ZSt8_DestroyIPSt10unique_ptrIN4LIEF5MachO6BinaryESt14default_deleteIS3_EES6_EvT_S8_RSaIT0_E.exitthread-pre-split.i: ; preds = %_ZSt8_DestroyISt10unique_ptrIN4LIEF5MachO6BinaryESt14default_deleteIS3_EEEvPT_.exit.i.i.i.i
  %.pr.i = load ptr, ptr %2, align 8
  br label %_ZSt8_DestroyIPSt10unique_ptrIN4LIEF5MachO6BinaryESt14default_deleteIS3_EES6_EvT_S8_RSaIT0_E.exit.i

_ZSt8_DestroyIPSt10unique_ptrIN4LIEF5MachO6BinaryESt14default_deleteIS3_EES6_EvT_S8_RSaIT0_E.exit.i: ; preds = %_ZSt8_DestroyIPSt10unique_ptrIN4LIEF5MachO6BinaryESt14default_deleteIS3_EES6_EvT_S8_RSaIT0_E.exitthread-pre-split.i, %1
  %11 = phi ptr [ %.pr.i, %_ZSt8_DestroyIPSt10unique_ptrIN4LIEF5MachO6BinaryESt14default_deleteIS3_EES6_EvT_S8_RSaIT0_E.exitthread-pre-split.i ], [ %3, %1 ]
  %.not.i.i.i = icmp eq ptr %11, null
  br i1 %.not.i.i.i, label %_ZNSt6vectorISt10unique_ptrIN4LIEF5MachO6BinaryESt14default_deleteIS3_EESaIS6_EED2Ev.exit, label %12

12:                                               ; preds = %_ZSt8_DestroyIPSt10unique_ptrIN4LIEF5MachO6BinaryESt14default_deleteIS3_EES6_EvT_S8_RSaIT0_E.exit.i
  tail call void @_ZdlPv(ptr noundef nonnull %11) #13
  br label %_ZNSt6vectorISt10unique_ptrIN4LIEF5MachO6BinaryESt14default_deleteIS3_EESaIS6_EED2Ev.exit

_ZNSt6vectorISt10unique_ptrIN4LIEF5MachO6BinaryESt14default_deleteIS3_EESaIS6_EED2Ev.exit: ; preds = %_ZSt8_DestroyIPSt10unique_ptrIN4LIEF5MachO6BinaryESt14default_deleteIS3_EES6_EvT_S8_RSaIT0_E.exit.i, %12
  ret void
}